; Function Attrs: nounwind uwtable
define internal ptr @_testcapi_set_exception(ptr readnone captures(none) %0, ptr noundef %1) #0 {
  %3 = tail call ptr @PyErr_GetHandledException() #8
  %4 = getelementptr i8, ptr %3, i64 8
  %.val = load ptr, ptr %4, align 8, !tbaa !22
  %5 = getelementptr i8, ptr %.val, i64 168
  %.val5 = load i64, ptr %5, align 8, !tbaa !23
  %6 = and i64 %.val5, 1073741824
  %7 = icmp ne i64 %6, 0
  %8 = icmp eq ptr %3, null
  %or.cond = or i1 %8, %7
  br i1 %or.cond, label %10, label %9

9:                                                ; preds = %2
  tail call void @__assert_fail(ptr noundef nonnull @.str.59, ptr noundef nonnull @.str.35, i32 noundef 283, ptr noundef nonnull @__PRETTY_FUNCTION__._testcapi_set_exception) #9
  unreachable

10:                                               ; preds = %2
  tail call void @PyErr_SetHandledException(ptr noundef %1) #8
  ret ptr %3
}